; Function Attrs: mustprogress nofree norecurse nosync nounwind memory(argmem: readwrite) uwtable
define internal noundef i32 @_ZN2cvL14normDiffL1_16sEPKsS1_PKhPiii(ptr noundef readonly captures(none) %0, ptr noundef readonly captures(none) %1, ptr noundef readonly %2, ptr noundef captures(none) %3, i32 noundef %4, i32 noundef %5) #6 {
  %7 = load i32, ptr %3, align 4
  %.not.i = icmp eq ptr %2, null
  br i1 %.not.i, label %24, label %.preheader31.i

.preheader31.i:                                   ; preds = %6
  %8 = icmp sgt i32 %4, 0
  br i1 %8, label %.lr.ph39.i, label %_ZN2cv11normDiffL1_IsiEEiPKT_S3_PKhPT0_ii.exit

.lr.ph39.i:                                       ; preds = %.preheader31.i
  %9 = icmp sgt i32 %5, 0
  %10 = sext i32 %5 to i64
  br i1 %9, label %.lr.ph39.split.us.preheader.i, label %_ZN2cv11normDiffL1_IsiEEiPKT_S3_PKhPT0_ii.exit

.lr.ph39.split.us.preheader.i:                    ; preds = %.lr.ph39.i
  %wide.trip.count47.i = zext nneg i32 %4 to i64
  %wide.trip.count.i = zext nneg i32 %5 to i64
  br label %.lr.ph39.split.us.i

.lr.ph39.split.us.i:                              ; preds = %..loopexit_crit_edge.us.i, %.lr.ph39.split.us.preheader.i
  %indvars.iv44.i = phi i64 [ 0, %.lr.ph39.split.us.preheader.i ], [ %indvars.iv.next45.i, %..loopexit_crit_edge.us.i ]
  %.137.us.i = phi i32 [ %7, %.lr.ph39.split.us.preheader.i ], [ %.3.us.i, %..loopexit_crit_edge.us.i ]
  %.02736.us.i = phi ptr [ %0, %.lr.ph39.split.us.preheader.i ], [ %22, %..loopexit_crit_edge.us.i ]
  %.02835.us.i = phi ptr [ %1, %.lr.ph39.split.us.preheader.i ], [ %23, %..loopexit_crit_edge.us.i ]
  %11 = getelementptr inbounds nuw i8, ptr %2, i64 %indvars.iv44.i
  %12 = load i8, ptr %11, align 1
  %.not30.us.i = icmp eq i8 %12, 0
  br i1 %.not30.us.i, label %..loopexit_crit_edge.us.i, label %.preheader.us.i

.preheader.us.i:                                  ; preds = %.lr.ph39.split.us.i, %.preheader.us.i
  %indvars.iv.i = phi i64 [ %indvars.iv.next.i, %.preheader.us.i ], [ 0, %.lr.ph39.split.us.i ]
  %.233.us.i = phi i32 [ %21, %.preheader.us.i ], [ %.137.us.i, %.lr.ph39.split.us.i ]
  %13 = getelementptr inbounds nuw i16, ptr %.02736.us.i, i64 %indvars.iv.i
  %14 = load i16, ptr %13, align 2
  %15 = sext i16 %14 to i32
  %16 = getelementptr inbounds nuw i16, ptr %.02835.us.i, i64 %indvars.iv.i
  %17 = load i16, ptr %16, align 2
  %18 = sext i16 %17 to i32
  %19 = sub nsw i32 %15, %18
  %20 = tail call i32 @llvm.abs.i32(i32 %19, i1 true)
  %21 = add nsw i32 %20, %.233.us.i
  %indvars.iv.next.i = add nuw nsw i64 %indvars.iv.i, 1
  %exitcond.not.i = icmp eq i64 %indvars.iv.next.i, %wide.trip.count.i
  br i1 %exitcond.not.i, label %..loopexit_crit_edge.us.i, label %.preheader.us.i, !llvm.loop !139

..loopexit_crit_edge.us.i:                        ; preds = %.preheader.us.i, %.lr.ph39.split.us.i
  %.3.us.i = phi i32 [ %.137.us.i, %.lr.ph39.split.us.i ], [ %21, %.preheader.us.i ]
  %indvars.iv.next45.i = add nuw nsw i64 %indvars.iv44.i, 1
  %22 = getelementptr inbounds nuw i16, ptr %.02736.us.i, i64 %10
  %23 = getelementptr inbounds nuw i16, ptr %.02835.us.i, i64 %10
  %exitcond48.not.i = icmp eq i64 %indvars.iv.next45.i, %wide.trip.count47.i
  br i1 %exitcond48.not.i, label %_ZN2cv11normDiffL1_IsiEEiPKT_S3_PKhPT0_ii.exit, label %.lr.ph39.split.us.i, !llvm.loop !140

24:                                               ; preds = %6
  %25 = mul nsw i32 %5, %4
  %26 = icmp sgt i32 %25, 0
  br i1 %26, label %.lr.ph.preheader.i.i, label %_ZN2cvL6normL1IsiEET0_PKT_S4_i.exit.i

.lr.ph.preheader.i.i:                             ; preds = %24
  %wide.trip.count.i.i = zext nneg i32 %25 to i64
  br label %.lr.ph.i.i

.lr.ph.i.i:                                       ; preds = %.lr.ph.i.i, %.lr.ph.preheader.i.i
  %indvars.iv.i.i = phi i64 [ 0, %.lr.ph.preheader.i.i ], [ %indvars.iv.next.i.i, %.lr.ph.i.i ]
  %.011.i.i = phi i32 [ 0, %.lr.ph.preheader.i.i ], [ %35, %.lr.ph.i.i ]
  %27 = getelementptr inbounds nuw i16, ptr %0, i64 %indvars.iv.i.i
  %28 = load i16, ptr %27, align 2
  %29 = sext i16 %28 to i32
  %30 = getelementptr inbounds nuw i16, ptr %1, i64 %indvars.iv.i.i
  %31 = load i16, ptr %30, align 2
  %32 = sext i16 %31 to i32
  %33 = sub nsw i32 %29, %32
  %34 = tail call i32 @llvm.abs.i32(i32 %33, i1 true)
  %35 = add nuw nsw i32 %34, %.011.i.i
  %indvars.iv.next.i.i = add nuw nsw i64 %indvars.iv.i.i, 1
  %exitcond.not.i.i = icmp eq i64 %indvars.iv.next.i.i, %wide.trip.count.i.i
  br i1 %exitcond.not.i.i, label %_ZN2cvL6normL1IsiEET0_PKT_S4_i.exit.i, label %.lr.ph.i.i, !llvm.loop !141

_ZN2cvL6normL1IsiEET0_PKT_S4_i.exit.i:            ; preds = %.lr.ph.i.i, %24
  %.0.lcssa.i.i = phi i32 [ 0, %24 ], [ %35, %.lr.ph.i.i ]
  %36 = add nsw i32 %.0.lcssa.i.i, %7
  br label %_ZN2cv11normDiffL1_IsiEEiPKT_S3_PKhPT0_ii.exit

_ZN2cv11normDiffL1_IsiEEiPKT_S3_PKhPT0_ii.exit:   ; preds = %..loopexit_crit_edge.us.i, %.preheader31.i, %.lr.ph39.i, %_ZN2cvL6normL1IsiEET0_PKT_S4_i.exit.i
  %.026.i = phi i32 [ %36, %_ZN2cvL6normL1IsiEET0_PKT_S4_i.exit.i ], [ %7, %.preheader31.i ], [ %7, %.lr.ph39.i ], [ %.3.us.i, %..loopexit_crit_edge.us.i ]
  store i32 %.026.i, ptr %3, align 4
  ret i32 0
}